; Function Attrs: nounwind uwtable
define dso_local i32 @eio_signal_wakeup(ptr noundef readonly captures(none) %0) #0 {
  %2 = alloca i8, align 1
  call void @llvm.lifetime.start.p0(i64 1, ptr nonnull %2) #10
  store i8 0, ptr %2, align 1
  %3 = getelementptr inbounds nuw i8, ptr %0, i64 8
  %4 = load i32, ptr %3, align 4
  %5 = call i64 @write(i32 noundef %4, ptr noundef nonnull %2, i64 noundef 1) #10
  %.not = icmp eq i64 %5, 1
  br i1 %.not, label %8, label %6

6:                                                ; preds = %1
  %7 = tail call i32 (ptr, ...) @error(ptr noundef nonnull @.str.14, ptr noundef nonnull @__func__.eio_signal_wakeup) #10
  br label %8

8:                                                ; preds = %1, %6
  %.0 = phi i32 [ %7, %6 ], [ 0, %1 ]
  call void @llvm.lifetime.end.p0(i64 1, ptr nonnull %2) #10
  ret i32 %.0
}